; Function Attrs: mustprogress uwtable
define void @_ZNK2cv15line_descriptor16BinaryDescriptor6detectERKSt6vectorINS_3MatESaIS3_EERS2_IS2_INS0_7KeyLineESaIS8_EESaISA_EES7_(ptr noundef nonnull align 8 dereferenceable(192) %0, ptr nocapture noundef nonnull readonly align 8 dereferenceable(24) %1, ptr nocapture noundef nonnull readonly align 8 dereferenceable(24) %2, ptr nocapture noundef nonnull readonly align 8 dereferenceable(24) %3) local_unnamed_addr #5 align 2 personality ptr @__gxx_personality_v0 {
  %5 = alloca %"class.std::__cxx11::basic_string", align 8
  %6 = alloca %"class.std::allocator.35", align 1
  %7 = getelementptr inbounds i8, ptr %1, i64 8
  %8 = load ptr, ptr %7, align 8
  %9 = load ptr, ptr %1, align 8
  %10 = icmp eq ptr %8, %9
  br i1 %10, label %11, label %.lr.ph

11:                                               ; preds = %4
  %12 = tail call noundef nonnull align 8 dereferenceable(8) ptr @_ZStlsISt11char_traitsIcEERSt13basic_ostreamIcT_ES5_PKc(ptr noundef nonnull align 8 dereferenceable(8) @_ZSt4cout, ptr noundef nonnull @.str.4)
  %13 = tail call noundef nonnull align 8 dereferenceable(8) ptr @_ZNSolsEPFRSoS_E(ptr noundef nonnull align 8 dereferenceable(8) %12, ptr noundef nonnull @_ZSt4endlIcSt11char_traitsIcEERSt13basic_ostreamIT_T0_ES6_)
  br label %.loopexit

.lr.ph:                                           ; preds = %4, %.critedge
  %14 = phi ptr [ %50, %.critedge ], [ %9, %4 ]
  %.02335 = phi i64 [ %48, %.critedge ], [ 0, %4 ]
  %15 = load ptr, ptr %3, align 8
  %16 = getelementptr inbounds %"class.cv::Mat", ptr %15, i64 %.02335
  %17 = getelementptr inbounds i8, ptr %16, i64 16
  %18 = load ptr, ptr %17, align 8
  %.not = icmp eq ptr %18, null
  br i1 %.not, label %.critedge, label %19

19:                                               ; preds = %.lr.ph
  %20 = getelementptr inbounds i8, ptr %16, i64 64
  %21 = load ptr, ptr %20, align 8
  %22 = getelementptr inbounds i8, ptr %21, i64 4
  %23 = load i32, ptr %22, align 4
  %24 = load i32, ptr %21, align 4
  %25 = getelementptr inbounds %"class.cv::Mat", ptr %14, i64 %.02335, i32 10
  %26 = load ptr, ptr %25, align 8
  %27 = getelementptr inbounds i8, ptr %26, i64 4
  %28 = load i32, ptr %27, align 4
  %29 = load i32, ptr %26, align 4
  %30 = icmp ne i32 %23, %28
  %31 = icmp ne i32 %24, %29
  %.not6.i = select i1 %30, i1 true, i1 %31
  br i1 %.not6.i, label %.critedge2, label %32

32:                                               ; preds = %19
  %33 = load i32, ptr %16, align 8
  %34 = and i32 %33, 4095
  %.not24 = icmp eq i32 %34, 0
  br i1 %.not24, label %.critedge, label %.critedge2

.critedge2:                                       ; preds = %19, %32
  call void @_ZNSaIcEC1Ev(ptr noundef nonnull align 1 dereferenceable(1) %6) #23
  invoke void @_ZNSt7__cxx1112basic_stringIcSt11char_traitsIcESaIcEEC1EPKcRKS3_(ptr noundef nonnull align 8 dereferenceable(32) %5, ptr noundef nonnull @.str.5, ptr noundef nonnull align 1 dereferenceable(1) %6)
          to label %35 unwind label %37

35:                                               ; preds = %.critedge2
  invoke void @_ZN2cv5errorEiRKNSt7__cxx1112basic_stringIcSt11char_traitsIcESaIcEEEPKcS9_i(i32 noundef -5, ptr noundef nonnull align 8 dereferenceable(32) %5, ptr noundef nonnull @__func__._ZN2cv15line_descriptor16BinaryDescriptor6detectERKNS_3MatERSt6vectorINS0_7KeyLineESaIS6_EES4_, ptr noundef nonnull @.str.6, i32 noundef 439) #25
          to label %36 unwind label %39

36:                                               ; preds = %35
  unreachable

37:                                               ; preds = %.critedge2
  %38 = landingpad { ptr, i32 }
          cleanup
  br label %41

39:                                               ; preds = %35
  %40 = landingpad { ptr, i32 }
          cleanup
  call void @_ZNSt7__cxx1112basic_stringIcSt11char_traitsIcESaIcEED1Ev(ptr noundef nonnull align 8 dereferenceable(32) %5) #23
  br label %41

41:                                               ; preds = %39, %37
  %.pn = phi { ptr, i32 } [ %40, %39 ], [ %38, %37 ]
  call void @_ZNSaIcED1Ev(ptr noundef nonnull align 1 dereferenceable(1) %6) #23
  resume { ptr, i32 } %.pn

.critedge:                                        ; preds = %.lr.ph, %32
  %42 = getelementptr inbounds %"class.cv::Mat", ptr %14, i64 %.02335
  %43 = load ptr, ptr %2, align 8
  %44 = getelementptr inbounds %"class.std::vector.46", ptr %43, i64 %.02335
  %45 = load ptr, ptr %0, align 8
  %46 = getelementptr inbounds i8, ptr %45, i64 72
  %47 = load ptr, ptr %46, align 8
  tail call void %47(ptr noundef nonnull align 8 dereferenceable(192) %0, ptr noundef nonnull align 8 dereferenceable(96) %42, ptr noundef nonnull align 8 dereferenceable(24) %44, ptr noundef nonnull align 8 dereferenceable(96) %16)
  %48 = add nuw i64 %.02335, 1
  %49 = load ptr, ptr %7, align 8
  %50 = load ptr, ptr %1, align 8
  %51 = ptrtoint ptr %49 to i64
  %52 = ptrtoint ptr %50 to i64
  %53 = sub i64 %51, %52
  %54 = sdiv exact i64 %53, 96
  %55 = icmp ult i64 %48, %54
  br i1 %55, label %.lr.ph, label %.loopexit, !llvm.loop !39

.loopexit:                                        ; preds = %.critedge, %11
  ret void
}